; Function Attrs: nounwind uwtable
define hidden range(i32 -1, 1) i32 @ps_delete_files(ptr noundef readonly captures(none) %0, ptr noundef readonly captures(none) %1) #0 {
  %3 = alloca [4096 x i8], align 16
  call void @llvm.lifetime.start.p0(i64 4096, ptr nonnull %3) #15
  %4 = load ptr, ptr %0, align 8, !tbaa !24
  %.not.i = icmp eq ptr %4, null
  br i1 %.not.i, label %ps_files_path_create.exit.thread, label %5

5:                                                ; preds = %2
  %6 = getelementptr inbounds nuw i8, ptr %1, i64 16
  %7 = load i64, ptr %6, align 8, !tbaa !22
  %8 = getelementptr inbounds nuw i8, ptr %4, i64 16
  %9 = load i64, ptr %8, align 8, !tbaa !16
  %.not40.i = icmp ugt i64 %7, %9
  br i1 %.not40.i, label %10, label %ps_files_path_create.exit.thread

10:                                               ; preds = %5
  %11 = getelementptr inbounds nuw i8, ptr %4, i64 8
  %12 = load ptr, ptr %11, align 8, !tbaa !23
  %13 = getelementptr inbounds nuw i8, ptr %12, i64 16
  %14 = load i64, ptr %13, align 8, !tbaa !22
  %15 = shl i64 %9, 1
  %16 = add i64 %7, -4086
  %17 = add i64 %16, %15
  %18 = add i64 %17, %14
  %19 = icmp ult i64 %18, -4097
  br i1 %19, label %ps_files_path_create.exit.thread, label %20

20:                                               ; preds = %10
  %21 = getelementptr inbounds nuw i8, ptr %1, i64 24
  %22 = getelementptr inbounds nuw i8, ptr %12, i64 24
  call void @llvm.memcpy.p0.p0.i64(ptr nonnull align 16 %3, ptr nonnull align 8 %22, i64 %14, i1 false)
  %23 = getelementptr inbounds nuw i8, ptr %3, i64 %14
  store i8 47, ptr %23, align 1, !tbaa !4
  %.041.i = add i64 %14, 1
  %24 = trunc i64 %9 to i32
  %25 = icmp sgt i32 %24, 0
  br i1 %25, label %.lr.ph.i, label %.loopexit

.lr.ph.i:                                         ; preds = %20, %.lr.ph.i
  %.045.i = phi i64 [ %.0.i, %.lr.ph.i ], [ %.041.i, %20 ]
  %.0.in44.i = phi i64 [ %28, %.lr.ph.i ], [ %14, %20 ]
  %.03443.i = phi i32 [ %31, %.lr.ph.i ], [ 0, %20 ]
  %.03542.i = phi ptr [ %26, %.lr.ph.i ], [ %21, %20 ]
  %26 = getelementptr inbounds nuw i8, ptr %.03542.i, i64 1
  %27 = load i8, ptr %.03542.i, align 1, !tbaa !4
  %28 = add i64 %.0.in44.i, 2
  %29 = getelementptr inbounds nuw i8, ptr %3, i64 %.045.i
  store i8 %27, ptr %29, align 1, !tbaa !4
  %30 = getelementptr inbounds nuw i8, ptr %3, i64 %28
  store i8 47, ptr %30, align 1, !tbaa !4
  %31 = add nuw nsw i32 %.03443.i, 1
  %.0.i = add i64 %.0.in44.i, 3
  %exitcond.not = icmp eq i32 %31, %24
  br i1 %exitcond.not, label %.loopexit, label %.lr.ph.i

.loopexit:                                        ; preds = %.lr.ph.i, %20
  %.0.in.lcssa.i = phi i64 [ %14, %20 ], [ %28, %.lr.ph.i ]
  %.0.lcssa.i = phi i64 [ %.041.i, %20 ], [ %.0.i, %.lr.ph.i ]
  %32 = getelementptr inbounds nuw i8, ptr %3, i64 %.0.lcssa.i
  call void @llvm.memcpy.p0.p0.i64(ptr noundef nonnull align 1 dereferenceable(5) %32, ptr noundef nonnull align 1 dereferenceable(5) @.str.12, i64 5, i1 false)
  %33 = getelementptr i8, ptr %3, i64 %.0.in.lcssa.i
  %34 = getelementptr i8, ptr %33, i64 6
  call void @llvm.memcpy.p0.p0.i64(ptr nonnull align 1 %34, ptr nonnull readonly align 8 %21, i64 %7, i1 false)
  %35 = getelementptr i8, ptr %34, i64 %7
  store i8 0, ptr %35, align 1, !tbaa !4
  %36 = getelementptr inbounds nuw i8, ptr %4, i64 36
  %37 = load i32, ptr %36, align 4, !tbaa !12
  %.not5 = icmp eq i32 %37, -1
  br i1 %.not5, label %43, label %ps_files_close.exit

ps_files_close.exit:                              ; preds = %.loopexit
  %38 = tail call i32 @close(i32 noundef %37) #15
  store i32 -1, ptr %36, align 4, !tbaa !12
  %39 = call i32 @unlink(ptr noundef nonnull %3) #15
  %40 = icmp eq i32 %39, -1
  br i1 %40, label %41, label %43

41:                                               ; preds = %ps_files_close.exit
  %42 = call i32 @access(ptr noundef nonnull %3, i32 noundef 0) #15
  %.not6 = icmp eq i32 %42, 0
  br i1 %.not6, label %ps_files_path_create.exit.thread, label %43

43:                                               ; preds = %ps_files_close.exit, %41, %.loopexit
  br label %ps_files_path_create.exit.thread

ps_files_path_create.exit.thread:                 ; preds = %2, %5, %10, %41, %43
  %.0 = phi i32 [ 0, %43 ], [ -1, %41 ], [ -1, %10 ], [ -1, %5 ], [ -1, %2 ]
  call void @llvm.lifetime.end.p0(i64 4096, ptr nonnull %3) #15
  ret i32 %.0
}